target datalayout = "e-m:e-p270:32:32-p271:32:32-p272:64:64-i64:64-i128:128-f80:128-n8:16:32:64-S128"
target triple = "x86_64-pc-linux-gnu"

%struct.zrangespec = type { double, double, i32, i32 }

; Function Attrs: nounwind uwtable
define dso_local i32 @zslValueGteMin(double noundef %0, ptr noundef %1) #0 {
  %3 = alloca double, align 8
  %4 = alloca ptr, align 8
  store double %0, ptr %3, align 8, !tbaa !9
  store ptr %1, ptr %4, align 8, !tbaa !45
  %5 = load ptr, ptr %4, align 8, !tbaa !45
  %6 = getelementptr inbounds nuw %struct.zrangespec, ptr %5, i32 0, i32 2
  %7 = load i32, ptr %6, align 8, !tbaa !46
  %8 = icmp ne i32 %7, 0
  br i1 %8, label %9, label %16

9:                                                ; preds = %2
  %10 = load double, ptr %3, align 8, !tbaa !9
  %11 = load ptr, ptr %4, align 8, !tbaa !45
  %12 = getelementptr inbounds nuw %struct.zrangespec, ptr %11, i32 0, i32 0
  %13 = load double, ptr %12, align 8, !tbaa !48
  %14 = fcmp ogt double %10, %13
  %15 = zext i1 %14 to i32
  br label %23

16:                                               ; preds = %2
  %17 = load double, ptr %3, align 8, !tbaa !9
  %18 = load ptr, ptr %4, align 8, !tbaa !45
  %19 = getelementptr inbounds nuw %struct.zrangespec, ptr %18, i32 0, i32 0
  %20 = load double, ptr %19, align 8, !tbaa !48
  %21 = fcmp oge double %17, %20
  %22 = zext i1 %21 to i32
  br label %23

23:                                               ; preds = %16, %9
  %24 = phi i32 [ %15, %9 ], [ %22, %16 ]
  ret i32 %24
}