; Function Attrs: mustprogress nofree norecurse nosync nounwind willreturn memory(argmem: read) uwtable
define dso_local range(i32 0, 2) i32 @zslValueGteMin(double noundef %0, ptr noundef readonly captures(none) %1) local_unnamed_addr #7 {
  %3 = getelementptr inbounds nuw i8, ptr %1, i64 16
  %4 = load i32, ptr %3, align 8, !tbaa !41
  %.not = icmp eq i32 %4, 0
  %5 = load double, ptr %1, align 8, !tbaa !43
  %6 = fcmp ogt double %0, %5
  %7 = fcmp oge double %0, %5
  %.in = select i1 %.not, i1 %7, i1 %6
  %8 = zext i1 %.in to i32
  ret i32 %8
}